target datalayout = "e-m:e-p270:32:32-p271:32:32-p272:64:64-i64:64-i128:128-f80:128-n8:16:32:64-S128"
target triple = "x86_64-pc-linux-gnu"

%struct.IpoptProblemInfo = type { %"class.Ipopt::SmartPtr", %"class.Ipopt::SmartPtr.0", i32, ptr, ptr, i32, ptr, ptr, i32, i32, i32, ptr, ptr, ptr, ptr, ptr, ptr, double, ptr, ptr }
%"class.Ipopt::SmartPtr" = type { ptr }
%"class.Ipopt::SmartPtr.0" = type { ptr }

; Function Attrs: mustprogress uwtable
define zeroext i1 @SetIpoptProblemScaling(ptr noundef %0, double noundef %1, ptr noundef %2, ptr noundef %3) #4 {
  %5 = alloca ptr, align 8
  %6 = alloca double, align 8
  %7 = alloca ptr, align 8
  %8 = alloca ptr, align 8
  store ptr %0, ptr %5, align 8, !tbaa !11
  store double %1, ptr %6, align 8, !tbaa !80
  store ptr %2, ptr %7, align 8, !tbaa !7
  store ptr %3, ptr %8, align 8, !tbaa !7
  %9 = load double, ptr %6, align 8, !tbaa !80
  %10 = load ptr, ptr %5, align 8, !tbaa !11
  %11 = getelementptr inbounds nuw %struct.IpoptProblemInfo, ptr %10, i32 0, i32 17
  store double %9, ptr %11, align 8, !tbaa !34
  %12 = load ptr, ptr %7, align 8, !tbaa !7
  %13 = icmp ne ptr %12, null
  br i1 %13, label %14, label %39

14:                                               ; preds = %4
  %15 = load ptr, ptr %5, align 8, !tbaa !11
  %16 = getelementptr inbounds nuw %struct.IpoptProblemInfo, ptr %15, i32 0, i32 18
  %17 = load ptr, ptr %16, align 8, !tbaa !35
  %18 = icmp ne ptr %17, null
  br i1 %18, label %31, label %19

19:                                               ; preds = %14
  %20 = load ptr, ptr %5, align 8, !tbaa !11
  %21 = getelementptr inbounds nuw %struct.IpoptProblemInfo, ptr %20, i32 0, i32 2
  %22 = load i32, ptr %21, align 8, !tbaa !13
  %23 = sext i32 %22 to i64
  %24 = call { i64, i1 } @llvm.umul.with.overflow.i64(i64 %23, i64 8)
  %25 = extractvalue { i64, i1 } %24, 1
  %26 = extractvalue { i64, i1 } %24, 0
  %27 = select i1 %25, i64 -1, i64 %26
  %28 = call noalias noundef nonnull ptr @_Znam(i64 noundef %27) #17
  %29 = load ptr, ptr %5, align 8, !tbaa !11
  %30 = getelementptr inbounds nuw %struct.IpoptProblemInfo, ptr %29, i32 0, i32 18
  store ptr %28, ptr %30, align 8, !tbaa !35
  br label %31

31:                                               ; preds = %19, %14
  %32 = load ptr, ptr %5, align 8, !tbaa !11
  %33 = getelementptr inbounds nuw %struct.IpoptProblemInfo, ptr %32, i32 0, i32 2
  %34 = load i32, ptr %33, align 8, !tbaa !13
  %35 = load ptr, ptr %7, align 8, !tbaa !7
  %36 = load ptr, ptr %5, align 8, !tbaa !11
  %37 = getelementptr inbounds nuw %struct.IpoptProblemInfo, ptr %36, i32 0, i32 18
  %38 = load ptr, ptr %37, align 8, !tbaa !35
  call void @_ZN5Ipopt10IpBlasCopyEiPKdiPdi(i32 noundef %34, ptr noundef %35, i32 noundef 1, ptr noundef %38, i32 noundef 1)
  br label %48

39:                                               ; preds = %4
  %40 = load ptr, ptr %5, align 8, !tbaa !11
  %41 = getelementptr inbounds nuw %struct.IpoptProblemInfo, ptr %40, i32 0, i32 18
  %42 = load ptr, ptr %41, align 8, !tbaa !35
  %43 = icmp eq ptr %42, null
  br i1 %43, label %45, label %44

44:                                               ; preds = %39
  call void @_ZdaPv(ptr noundef %42) #18
  br label %45

45:                                               ; preds = %44, %39
  %46 = load ptr, ptr %5, align 8, !tbaa !11
  %47 = getelementptr inbounds nuw %struct.IpoptProblemInfo, ptr %46, i32 0, i32 18
  store ptr null, ptr %47, align 8, !tbaa !35
  br label %48

48:                                               ; preds = %45, %31
  %49 = load ptr, ptr %8, align 8, !tbaa !7
  %50 = icmp ne ptr %49, null
  br i1 %50, label %51, label %76

51:                                               ; preds = %48
  %52 = load ptr, ptr %5, align 8, !tbaa !11
  %53 = getelementptr inbounds nuw %struct.IpoptProblemInfo, ptr %52, i32 0, i32 19
  %54 = load ptr, ptr %53, align 8, !tbaa !36
  %55 = icmp ne ptr %54, null
  br i1 %55, label %68, label %56

56:                                               ; preds = %51
  %57 = load ptr, ptr %5, align 8, !tbaa !11
  %58 = getelementptr inbounds nuw %struct.IpoptProblemInfo, ptr %57, i32 0, i32 5
  %59 = load i32, ptr %58, align 8, !tbaa !22
  %60 = sext i32 %59 to i64
  %61 = call { i64, i1 } @llvm.umul.with.overflow.i64(i64 %60, i64 8)
  %62 = extractvalue { i64, i1 } %61, 1
  %63 = extractvalue { i64, i1 } %61, 0
  %64 = select i1 %62, i64 -1, i64 %63
  %65 = call noalias noundef nonnull ptr @_Znam(i64 noundef %64) #17
  %66 = load ptr, ptr %5, align 8, !tbaa !11
  %67 = getelementptr inbounds nuw %struct.IpoptProblemInfo, ptr %66, i32 0, i32 19
  store ptr %65, ptr %67, align 8, !tbaa !36
  br label %68

68:                                               ; preds = %56, %51
  %69 = load ptr, ptr %5, align 8, !tbaa !11
  %70 = getelementptr inbounds nuw %struct.IpoptProblemInfo, ptr %69, i32 0, i32 5
  %71 = load i32, ptr %70, align 8, !tbaa !22
  %72 = load ptr, ptr %8, align 8, !tbaa !7
  %73 = load ptr, ptr %5, align 8, !tbaa !11
  %74 = getelementptr inbounds nuw %struct.IpoptProblemInfo, ptr %73, i32 0, i32 19
  %75 = load ptr, ptr %74, align 8, !tbaa !36
  call void @_ZN5Ipopt10IpBlasCopyEiPKdiPdi(i32 noundef %71, ptr noundef %72, i32 noundef 1, ptr noundef %75, i32 noundef 1)
  br label %85

76:                                               ; preds = %48
  %77 = load ptr, ptr %5, align 8, !tbaa !11
  %78 = getelementptr inbounds nuw %struct.IpoptProblemInfo, ptr %77, i32 0, i32 19
  %79 = load ptr, ptr %78, align 8, !tbaa !36
  %80 = icmp eq ptr %79, null
  br i1 %80, label %82, label %81

81:                                               ; preds = %76
  call void @_ZdaPv(ptr noundef %79) #18
  br label %82

82:                                               ; preds = %81, %76
  %83 = load ptr, ptr %5, align 8, !tbaa !11
  %84 = getelementptr inbounds nuw %struct.IpoptProblemInfo, ptr %83, i32 0, i32 19
  store ptr null, ptr %84, align 8, !tbaa !36
  br label %85

85:                                               ; preds = %82, %68
  ret i1 true
}