; Function Attrs: mustprogress uwtable
define noundef zeroext i1 @SetIpoptProblemScaling(ptr noundef captures(none) initializes((128, 136)) %0, double noundef %1, ptr noundef %2, ptr noundef %3) local_unnamed_addr #3 {
  %5 = getelementptr inbounds nuw i8, ptr %0, i64 128
  store double %1, ptr %5, align 8, !tbaa !32
  %.not = icmp eq ptr %2, null
  %6 = getelementptr inbounds nuw i8, ptr %0, i64 136
  %7 = load ptr, ptr %6, align 8, !tbaa !56
  %8 = icmp eq ptr %7, null
  br i1 %.not, label %19, label %9

9:                                                ; preds = %4
  %10 = getelementptr inbounds nuw i8, ptr %0, i64 16
  %11 = load i32, ptr %10, align 8, !tbaa !3
  br i1 %8, label %12, label %._crit_edge

12:                                               ; preds = %9
  %13 = sext i32 %11 to i64
  %14 = icmp slt i32 %11, 0
  %15 = shl nsw i64 %13, 3
  %16 = select i1 %14, i64 -1, i64 %15
  %17 = tail call noalias noundef nonnull ptr @_Znam(i64 noundef %16) #17
  store ptr %17, ptr %6, align 8, !tbaa !56
  br label %._crit_edge

._crit_edge:                                      ; preds = %9, %12
  %18 = phi ptr [ %17, %12 ], [ %7, %9 ]
  tail call void @_ZN5Ipopt10IpBlasCopyEiPKdiPdi(i32 noundef %11, ptr noundef nonnull %2, i32 noundef 1, ptr noundef nonnull %18, i32 noundef 1)
  br label %22

19:                                               ; preds = %4
  br i1 %8, label %21, label %20

20:                                               ; preds = %19
  tail call void @_ZdaPv(ptr noundef nonnull %7) #18
  br label %21

21:                                               ; preds = %20, %19
  store ptr null, ptr %6, align 8, !tbaa !56
  br label %22

22:                                               ; preds = %21, %._crit_edge
  %.not24 = icmp eq ptr %3, null
  %23 = getelementptr inbounds nuw i8, ptr %0, i64 144
  %24 = load ptr, ptr %23, align 8, !tbaa !57
  %25 = icmp eq ptr %24, null
  br i1 %.not24, label %36, label %26

26:                                               ; preds = %22
  %27 = getelementptr inbounds nuw i8, ptr %0, i64 40
  %28 = load i32, ptr %27, align 8, !tbaa !17
  br i1 %25, label %29, label %._crit_edge26

29:                                               ; preds = %26
  %30 = sext i32 %28 to i64
  %31 = icmp slt i32 %28, 0
  %32 = shl nsw i64 %30, 3
  %33 = select i1 %31, i64 -1, i64 %32
  %34 = tail call noalias noundef nonnull ptr @_Znam(i64 noundef %33) #17
  store ptr %34, ptr %23, align 8, !tbaa !57
  br label %._crit_edge26

._crit_edge26:                                    ; preds = %26, %29
  %35 = phi ptr [ %34, %29 ], [ %24, %26 ]
  tail call void @_ZN5Ipopt10IpBlasCopyEiPKdiPdi(i32 noundef %28, ptr noundef nonnull %3, i32 noundef 1, ptr noundef nonnull %35, i32 noundef 1)
  br label %39

36:                                               ; preds = %22
  br i1 %25, label %38, label %37

37:                                               ; preds = %36
  tail call void @_ZdaPv(ptr noundef nonnull %24) #18
  br label %38

38:                                               ; preds = %37, %36
  store ptr null, ptr %23, align 8, !tbaa !57
  br label %39

39:                                               ; preds = %38, %._crit_edge26
  ret i1 true
}